; Function Attrs: null_pointer_is_valid sspstrong uwtable
define internal noundef zeroext i16 @de_gc_device_properties(ptr noundef %0, ptr noundef %1, ptr readnone captures(none) %2, i32 noundef %3, i32 %4, ptr readnone captures(none) %5, i32 %6) #1 {
  %8 = shl i32 %3, 3
  %9 = or disjoint i32 %8, 4
  %10 = load i32, ptr @hf_gsm_a_spare_bits, align 4
  %11 = tail call ptr @proto_tree_add_bits_item(ptr noundef %1, i32 noundef %10, ptr noundef %0, i32 noundef %9, i32 noundef 3, i32 noundef 0)
  %12 = or disjoint i32 %8, 7
  %13 = load i32, ptr @hf_gsm_a_gm_device_prop_low_prio, align 4
  %14 = tail call ptr @proto_tree_add_bits_item(ptr noundef %1, i32 noundef %13, ptr noundef %0, i32 noundef %12, i32 noundef 1, i32 noundef 0)
  ret i16 1
}